; ModuleID = '41/267.cpp'
source_filename = "41/267.cpp"
target datalayout = "e-m:e-p270:32:32-p271:32:32-p272:64:64-i64:64-f80:128-n8:16:32:64-S128"
target triple = "x86_64-pc-linux-gnu"

%"class.std::ios_base::Init" = type { i8 }
%"class.std::basic_ostream" = type { i32 (...)**, %"class.std::basic_ios" }
%"class.std::basic_ios" = type { %"class.std::ios_base", %"class.std::basic_ostream"*, i8, i8, %"class.std::basic_streambuf"*, %"class.std::ctype"*, %"class.std::num_put"*, %"class.std::num_get"* }
%"class.std::ios_base" = type { i32 (...)**, i64, i64, i32, i32, i32, %"struct.std::ios_base::_Callback_list"*, %"struct.std::ios_base::_Words", [8 x %"struct.std::ios_base::_Words"], i32, %"struct.std::ios_base::_Words"*, %"class.std::locale" }
%"struct.std::ios_base::_Callback_list" = type { %"struct.std::ios_base::_Callback_list"*, void (i32, %"class.std::ios_base"*, i32)*, i32, i32 }
%"struct.std::ios_base::_Words" = type { i8*, i64 }
%"class.std::locale" = type { %"class.std::locale::_Impl"* }
%"class.std::locale::_Impl" = type { i32, %"class.std::locale::facet"**, i64, %"class.std::locale::facet"**, i8** }
%"class.std::locale::facet" = type <{ i32 (...)**, i32, [4 x i8] }>
%"class.std::basic_streambuf" = type { i32 (...)**, i8*, i8*, i8*, i8*, i8*, i8*, %"class.std::locale" }
%"class.std::ctype" = type <{ %"class.std::locale::facet.base", [4 x i8], %struct.__locale_struct*, i8, [7 x i8], i32*, i32*, i16*, i8, [256 x i8], [256 x i8], i8, [6 x i8] }>
%"class.std::locale::facet.base" = type <{ i32 (...)**, i32 }>
%struct.__locale_struct = type { [13 x %struct.__locale_data*], i16*, i32*, i32*, [13 x i8*] }
%struct.__locale_data = type opaque
%"class.std::num_put" = type { %"class.std::locale::facet.base", [4 x i8] }
%"class.std::num_get" = type { %"class.std::locale::facet.base", [4 x i8] }

@_ZStL8__ioinit = internal global %"class.std::ios_base::Init" zeroinitializer, align 1
@__dso_handle = external hidden global i8
@_ZSt4cout = external dso_local global %"class.std::basic_ostream", align 8
@.str = private unnamed_addr constant [2 x i8] c" \00", align 1
@llvm.global_ctors = appending global [1 x { i32, void ()*, i8* }] [{ i32, void ()*, i8* } { i32 65535, void ()* @_GLOBAL__sub_I_267.cpp, i8* null }]

; Function Attrs: noinline uwtable
define internal void @__cxx_global_var_init() #0 section ".text.startup" {
  call void @_ZNSt8ios_base4InitC1Ev(%"class.std::ios_base::Init"* @_ZStL8__ioinit)
  %1 = call i32 @__cxa_atexit(void (i8*)* bitcast (void (%"class.std::ios_base::Init"*)* @_ZNSt8ios_base4InitD1Ev to void (i8*)*), i8* getelementptr inbounds (%"class.std::ios_base::Init", %"class.std::ios_base::Init"* @_ZStL8__ioinit, i32 0, i32 0), i8* @__dso_handle) #3
  ret void
}

declare dso_local void @_ZNSt8ios_base4InitC1Ev(%"class.std::ios_base::Init"*) unnamed_addr #1

; Function Attrs: nounwind
declare dso_local void @_ZNSt8ios_base4InitD1Ev(%"class.std::ios_base::Init"*) unnamed_addr #2

; Function Attrs: nounwind
declare dso_local i32 @__cxa_atexit(void (i8*)*, i8*, i8*) #3

; Function Attrs: noinline norecurse uwtable
define dso_local i32 @main() #4 {
  %1 = alloca i32, align 4
  %2 = alloca i32, align 4
  %3 = alloca i32, align 4
  %4 = alloca i32, align 4
  %5 = alloca i32, align 4
  %6 = alloca i32, align 4
  %7 = alloca i32, align 4
  %8 = alloca i32, align 4
  %9 = alloca i32, align 4
  %10 = alloca i32, align 4
  %11 = alloca i32, align 4
  store i32 0, i32* %1, align 4
  store i32 1, i32* %7, align 4
  br label %12

12:                                               ; preds = %139, %0
  %13 = load i32, i32* %7, align 4
  %14 = icmp sle i32 %13, 6
  br i1 %14, label %15, label %142

15:                                               ; preds = %12
  store i32 1, i32* %8, align 4
  br label %16

16:                                               ; preds = %135, %15
  %17 = load i32, i32* %8, align 4
  %18 = icmp slt i32 %17, 6
  br i1 %18, label %19, label %138

19:                                               ; preds = %16
  store i32 1, i32* %9, align 4
  br label %20

20:                                               ; preds = %131, %19
  %21 = load i32, i32* %9, align 4
  %22 = icmp slt i32 %21, 6
  br i1 %22, label %23, label %134

23:                                               ; preds = %20
  store i32 1, i32* %10, align 4
  br label %24

24:                                               ; preds = %127, %23
  %25 = load i32, i32* %10, align 4
  %26 = icmp slt i32 %25, 6
  br i1 %26, label %27, label %130

27:                                               ; preds = %24
  %28 = load i32, i32* %7, align 4
  %29 = sub nsw i32 15, %28
  %30 = load i32, i32* %8, align 4
  %31 = sub nsw i32 %29, %30
  %32 = load i32, i32* %9, align 4
  %33 = sub nsw i32 %31, %32
  %34 = load i32, i32* %10, align 4
  %35 = sub nsw i32 %33, %34
  store i32 %35, i32* %11, align 4
  %36 = load i32, i32* %11, align 4
  %37 = icmp eq i32 %36, 1
  %38 = zext i1 %37 to i32
  store i32 %38, i32* %2, align 4
  %39 = load i32, i32* %8, align 4
  %40 = icmp eq i32 %39, 2
  %41 = zext i1 %40 to i32
  store i32 %41, i32* %3, align 4
  %42 = load i32, i32* %7, align 4
  %43 = icmp eq i32 %42, 5
  %44 = zext i1 %43 to i32
  store i32 %44, i32* %4, align 4
  %45 = load i32, i32* %9, align 4
  %46 = icmp ne i32 %45, 1
  %47 = zext i1 %46 to i32
  store i32 %47, i32* %5, align 4
  %48 = load i32, i32* %10, align 4
  %49 = icmp ne i32 %48, 1
  %50 = zext i1 %49 to i32
  store i32 %50, i32* %6, align 4
  %51 = load i32, i32* %11, align 4
  %52 = icmp sgt i32 %51, 0
  br i1 %52, label %53, label %126

53:                                               ; preds = %27
  %54 = load i32, i32* %11, align 4
  %55 = icmp ne i32 %54, 2
  br i1 %55, label %56, label %126

56:                                               ; preds = %53
  %57 = load i32, i32* %11, align 4
  %58 = icmp ne i32 %57, 3
  br i1 %58, label %59, label %126

59:                                               ; preds = %56
  %60 = load i32, i32* %7, align 4
  %61 = load i32, i32* %8, align 4
  %62 = icmp ne i32 %60, %61
  br i1 %62, label %63, label %126

63:                                               ; preds = %59
  %64 = load i32, i32* %7, align 4
  %65 = load i32, i32* %9, align 4
  %66 = icmp ne i32 %64, %65
  br i1 %66, label %67, label %126

67:                                               ; preds = %63
  %68 = load i32, i32* %7, align 4
  %69 = load i32, i32* %10, align 4
  %70 = icmp ne i32 %68, %69
  br i1 %70, label %71, label %126

71:                                               ; preds = %67
  %72 = load i32, i32* %3, align 4
  %73 = load i32, i32* %4, align 4
  %74 = add nsw i32 %72, %73
  %75 = icmp eq i32 %74, 2
  br i1 %75, label %76, label %126

76:                                               ; preds = %71
  %77 = load i32, i32* %2, align 4
  %78 = icmp eq i32 %77, 0
  br i1 %78, label %79, label %126

79:                                               ; preds = %76
  %80 = load i32, i32* %5, align 4
  %81 = icmp eq i32 %80, 0
  br i1 %81, label %82, label %126

82:                                               ; preds = %79
  %83 = load i32, i32* %7, align 4
  %84 = load i32, i32* %11, align 4
  %85 = icmp ne i32 %83, %84
  br i1 %85, label %86, label %126

86:                                               ; preds = %82
  %87 = load i32, i32* %8, align 4
  %88 = load i32, i32* %9, align 4
  %89 = icmp ne i32 %87, %88
  br i1 %89, label %90, label %126

90:                                               ; preds = %86
  %91 = load i32, i32* %8, align 4
  %92 = load i32, i32* %10, align 4
  %93 = icmp ne i32 %91, %92
  br i1 %93, label %94, label %126

94:                                               ; preds = %90
  %95 = load i32, i32* %8, align 4
  %96 = load i32, i32* %11, align 4
  %97 = icmp ne i32 %95, %96
  br i1 %97, label %98, label %126

98:                                               ; preds = %94
  %99 = load i32, i32* %9, align 4
  %100 = load i32, i32* %10, align 4
  %101 = icmp ne i32 %99, %100
  br i1 %101, label %102, label %126

102:                                              ; preds = %98
  %103 = load i32, i32* %9, align 4
  %104 = load i32, i32* %11, align 4
  %105 = icmp ne i32 %103, %104
  br i1 %105, label %106, label %126

106:                                              ; preds = %102
  %107 = load i32, i32* %10, align 4
  %108 = load i32, i32* %11, align 4
  %109 = icmp ne i32 %107, %108
  br i1 %109, label %110, label %126

110:                                              ; preds = %106
  %111 = load i32, i32* %7, align 4
  %112 = call dereferenceable(272) %"class.std::basic_ostream"* @_ZNSolsEi(%"class.std::basic_ostream"* @_ZSt4cout, i32 %111)
  %113 = call dereferenceable(272) %"class.std::basic_ostream"* @_ZStlsISt11char_traitsIcEERSt13basic_ostreamIcT_ES5_PKc(%"class.std::basic_ostream"* dereferenceable(272) %112, i8* getelementptr inbounds ([2 x i8], [2 x i8]* @.str, i64 0, i64 0))
  %114 = load i32, i32* %8, align 4
  %115 = call dereferenceable(272) %"class.std::basic_ostream"* @_ZNSolsEi(%"class.std::basic_ostream"* %113, i32 %114)
  %116 = call dereferenceable(272) %"class.std::basic_ostream"* @_ZStlsISt11char_traitsIcEERSt13basic_ostreamIcT_ES5_PKc(%"class.std::basic_ostream"* dereferenceable(272) %115, i8* getelementptr inbounds ([2 x i8], [2 x i8]* @.str, i64 0, i64 0))
  %117 = load i32, i32* %9, align 4
  %118 = call dereferenceable(272) %"class.std::basic_ostream"* @_ZNSolsEi(%"class.std::basic_ostream"* %116, i32 %117)
  %119 = call dereferenceable(272) %"class.std::basic_ostream"* @_ZStlsISt11char_traitsIcEERSt13basic_ostreamIcT_ES5_PKc(%"class.std::basic_ostream"* dereferenceable(272) %118, i8* getelementptr inbounds ([2 x i8], [2 x i8]* @.str, i64 0, i64 0))
  %120 = load i32, i32* %10, align 4
  %121 = call dereferenceable(272) %"class.std::basic_ostream"* @_ZNSolsEi(%"class.std::basic_ostream"* %119, i32 %120)
  %122 = call dereferenceable(272) %"class.std::basic_ostream"* @_ZStlsISt11char_traitsIcEERSt13basic_ostreamIcT_ES5_PKc(%"class.std::basic_ostream"* dereferenceable(272) %121, i8* getelementptr inbounds ([2 x i8], [2 x i8]* @.str, i64 0, i64 0))
  %123 = load i32, i32* %11, align 4
  %124 = call dereferenceable(272) %"class.std::basic_ostream"* @_ZNSolsEi(%"class.std::basic_ostream"* %122, i32 %123)
  %125 = call dereferenceable(272) %"class.std::basic_ostream"* @_ZNSolsEPFRSoS_E(%"class.std::basic_ostream"* %124, %"class.std::basic_ostream"* (%"class.std::basic_ostream"*)* @_ZSt4endlIcSt11char_traitsIcEERSt13basic_ostreamIT_T0_ES6_)
  br label %126

126:                                              ; preds = %110, %106, %102, %98, %94, %90, %86, %82, %79, %76, %71, %67, %63, %59, %56, %53, %27
  br label %127

127:                                              ; preds = %126
  %128 = load i32, i32* %10, align 4
  %129 = add nsw i32 %128, 1
  store i32 %129, i32* %10, align 4
  br label %24

130:                                              ; preds = %24
  br label %131

131:                                              ; preds = %130
  %132 = load i32, i32* %9, align 4
  %133 = add nsw i32 %132, 1
  store i32 %133, i32* %9, align 4
  br label %20

134:                                              ; preds = %20
  br label %135

135:                                              ; preds = %134
  %136 = load i32, i32* %8, align 4
  %137 = add nsw i32 %136, 1
  store i32 %137, i32* %8, align 4
  br label %16

138:                                              ; preds = %16
  br label %139

139:                                              ; preds = %138
  %140 = load i32, i32* %7, align 4
  %141 = add nsw i32 %140, 1
  store i32 %141, i32* %7, align 4
  br label %12

142:                                              ; preds = %12
  ret i32 0
}

declare dso_local dereferenceable(272) %"class.std::basic_ostream"* @_ZStlsISt11char_traitsIcEERSt13basic_ostreamIcT_ES5_PKc(%"class.std::basic_ostream"* dereferenceable(272), i8*) #1

declare dso_local dereferenceable(272) %"class.std::basic_ostream"* @_ZNSolsEi(%"class.std::basic_ostream"*, i32) #1

declare dso_local dereferenceable(272) %"class.std::basic_ostream"* @_ZNSolsEPFRSoS_E(%"class.std::basic_ostream"*, %"class.std::basic_ostream"* (%"class.std::basic_ostream"*)*) #1

declare dso_local dereferenceable(272) %"class.std::basic_ostream"* @_ZSt4endlIcSt11char_traitsIcEERSt13basic_ostreamIT_T0_ES6_(%"class.std::basic_ostream"* dereferenceable(272)) #1

; Function Attrs: noinline uwtable
define internal void @_GLOBAL__sub_I_267.cpp() #0 section ".text.startup" {
  call void @__cxx_global_var_init()
  ret void
}


!llvm.module.flags = !{!0}
!llvm.ident = !{!1}

!0 = !{i32 1, !"wchar_size", i32 4}
!1 = !{!"clang version 10.0.0-4ubuntu1 "}
